

Microchip MPLAB XC8 Assembler V2.36 build 20220127204148 
                                                                                               Sun Apr 16 14:41:01 2023

Microchip MPLAB XC8 C Compiler v2.36 (Free license) build 20220127204148 Og1 
     1                           	processor	16LF1764
     2                           	pagewidth 120
     3                           	opt	flic
     4                           	psect	cinit,global,class=CODE,merge=1,delta=2
     5                           	psect	bssCOMMON,global,class=COMMON,space=1,delta=1,noexec
     6                           	psect	bssBANK0,global,class=BANK0,space=1,delta=1,noexec
     7                           	psect	cstackCOMMON,global,class=COMMON,space=1,delta=1,noexec
     8                           	psect	maintext,global,class=CODE,merge=1,split=1,delta=2
     9                           	psect	text1,local,class=CODE,merge=1,inline,delta=2
    10                           	psect	text2,local,class=CODE,merge=1,inline,delta=2
    11                           	psect	text3,local,class=CODE,merge=1,inline,delta=2
    12                           	psect	text4,local,class=CODE,merge=1,inline,delta=2
    13                           	psect	text5,local,class=CODE,merge=1,delta=2
    14                           	psect	text6,local,class=CODE,merge=1,delta=2
    15                           	psect	text7,local,class=CODE,merge=1,delta=2
    16                           	psect	text8,local,class=CODE,merge=1,delta=2
    17                           	psect	text9,local,class=CODE,merge=1,delta=2
    18                           	psect	idloc,global,abs,ovrld,class=IDLOC,space=5,delta=2,noexec
    19                           	psect	config,global,abs,ovrld,class=CONFIG,space=4,delta=2,noexec
    20                           	dabs	1,0x7E,2
    21  0000                     
    22                           ; Version 2.40
    23                           ; Generated 17/11/2021 GMT
    24                           ; 
    25                           ; Copyright © 2021, Microchip Technology Inc. and its subsidiaries ("Microchip")
    26                           ; All rights reserved.
    27                           ; 
    28                           ; This software is developed by Microchip Technology Inc. and its subsidiaries ("Microch
      +                          ip").
    29                           ; 
    30                           ; Redistribution and use in source and binary forms, with or without modification, are
    31                           ; permitted provided that the following conditions are met:
    32                           ; 
    33                           ;     1. Redistributions of source code must retain the above copyright notice, this lis
      +                          t of
    34                           ;        conditions and the following disclaimer.
    35                           ; 
    36                           ;     2. Redistributions in binary form must reproduce the above copyright notice, this 
      +                          list
    37                           ;        of conditions and the following disclaimer in the documentation and/or other
    38                           ;        materials provided with the distribution. Publication is not required when
    39                           ;        this file is used in an embedded application.
    40                           ; 
    41                           ;     3. Microchip's name may not be used to endorse or promote products derived from th
      +                          is
    42                           ;        software without specific prior written permission.
    43                           ; 
    44                           ; THIS SOFTWARE IS PROVIDED BY MICROCHIP "AS IS" AND ANY EXPRESS OR IMPLIED WARRANTIES,
    45                           ; INCLUDING, BUT NOT LIMITED TO, THE IMPLIED WARRANTIES OF MERCHANTABILITY AND FITNESS F
      +                          OR
    46                           ; PURPOSE ARE DISCLAIMED.  IN NO EVENT SHALL MICROCHIP BE LIABLE FOR ANY DIRECT, INDIREC
      +                          T,
    47                           ; INCIDENTAL, SPECIAL, EXEMPLARY, OR CONSEQUENTIAL DAMAGES (INCLUDING BUT NOT LIMITED TO
    48                           ; PROCUREMENT OF SUBSTITUTE GOODS OR SERVICES; LOSS OF USE, DATA OR PROFITS; OR BUSINESS
    49                           ; INTERRUPTION) HOWSOEVER CAUSED AND ON ANY THEORY OF LIABILITY, WHETHER IN CONTRACT, ST
      +                          RICT
    50                           ; LIABILITY, OR TORT (INCLUDING NEGLIGENCE OR OTHERWISE) ARISING IN ANY WAY OUT OF THE U
      +                          SE OF
    51                           ; THIS SOFTWARE, EVEN IF ADVISED OF THE POSSIBILITY OF SUCH DAMAGE.
    52                           ; 
    53                           ; 
    54                           ; Code-generator required, PIC16LF1764 Definitions
    55                           ; 
    56                           ; SFR Addresses
    57  0000                     	;# 
    58  0001                     	;# 
    59  0002                     	;# 
    60  0003                     	;# 
    61  0004                     	;# 
    62  0005                     	;# 
    63  0006                     	;# 
    64  0007                     	;# 
    65  0008                     	;# 
    66  0009                     	;# 
    67  000A                     	;# 
    68  000B                     	;# 
    69  000C                     	;# 
    70  000E                     	;# 
    71  0011                     	;# 
    72  0012                     	;# 
    73  0013                     	;# 
    74  0014                     	;# 
    75  0015                     	;# 
    76  0016                     	;# 
    77  0016                     	;# 
    78  0017                     	;# 
    79  0018                     	;# 
    80  0019                     	;# 
    81  001A                     	;# 
    82  001A                     	;# 
    83  001B                     	;# 
    84  001B                     	;# 
    85  001C                     	;# 
    86  001D                     	;# 
    87  001E                     	;# 
    88  001F                     	;# 
    89  008C                     	;# 
    90  008E                     	;# 
    91  0091                     	;# 
    92  0092                     	;# 
    93  0093                     	;# 
    94  0094                     	;# 
    95  0095                     	;# 
    96  0096                     	;# 
    97  0097                     	;# 
    98  0098                     	;# 
    99  0099                     	;# 
   100  009A                     	;# 
   101  009B                     	;# 
   102  009B                     	;# 
   103  009C                     	;# 
   104  009D                     	;# 
   105  009E                     	;# 
   106  009F                     	;# 
   107  010C                     	;# 
   108  010E                     	;# 
   109  010F                     	;# 
   110  0110                     	;# 
   111  0111                     	;# 
   112  0112                     	;# 
   113  0113                     	;# 
   114  0114                     	;# 
   115  0115                     	;# 
   116  0116                     	;# 
   117  0117                     	;# 
   118  018C                     	;# 
   119  018E                     	;# 
   120  0191                     	;# 
   121  0191                     	;# 
   122  0192                     	;# 
   123  0193                     	;# 
   124  0193                     	;# 
   125  0194                     	;# 
   126  0195                     	;# 
   127  0196                     	;# 
   128  0199                     	;# 
   129  0199                     	;# 
   130  0199                     	;# 
   131  019A                     	;# 
   132  019A                     	;# 
   133  019A                     	;# 
   134  019B                     	;# 
   135  019B                     	;# 
   136  019B                     	;# 
   137  019B                     	;# 
   138  019B                     	;# 
   139  019C                     	;# 
   140  019C                     	;# 
   141  019C                     	;# 
   142  019D                     	;# 
   143  019D                     	;# 
   144  019D                     	;# 
   145  019E                     	;# 
   146  019E                     	;# 
   147  019E                     	;# 
   148  019F                     	;# 
   149  019F                     	;# 
   150  019F                     	;# 
   151  019F                     	;# 
   152  019F                     	;# 
   153  020C                     	;# 
   154  020E                     	;# 
   155  0211                     	;# 
   156  0211                     	;# 
   157  0212                     	;# 
   158  0212                     	;# 
   159  0213                     	;# 
   160  0213                     	;# 
   161  0214                     	;# 
   162  0214                     	;# 
   163  0215                     	;# 
   164  0215                     	;# 
   165  0215                     	;# 
   166  0215                     	;# 
   167  0216                     	;# 
   168  0216                     	;# 
   169  0217                     	;# 
   170  0217                     	;# 
   171  021D                     	;# 
   172  021E                     	;# 
   173  021F                     	;# 
   174  028C                     	;# 
   175  028E                     	;# 
   176  0291                     	;# 
   177  0291                     	;# 
   178  0292                     	;# 
   179  0293                     	;# 
   180  0294                     	;# 
   181  029E                     	;# 
   182  030C                     	;# 
   183  030E                     	;# 
   184  038C                     	;# 
   185  038E                     	;# 
   186  0391                     	;# 
   187  0392                     	;# 
   188  0393                     	;# 
   189  0397                     	;# 
   190  0398                     	;# 
   191  0399                     	;# 
   192  039B                     	;# 
   193  039C                     	;# 
   194  039D                     	;# 
   195  039E                     	;# 
   196  039F                     	;# 
   197  040E                     	;# 
   198  0413                     	;# 
   199  0413                     	;# 
   200  0414                     	;# 
   201  0414                     	;# 
   202  0415                     	;# 
   203  0416                     	;# 
   204  0417                     	;# 
   205  0418                     	;# 
   206  041A                     	;# 
   207  041A                     	;# 
   208  041B                     	;# 
   209  041B                     	;# 
   210  041C                     	;# 
   211  041D                     	;# 
   212  041E                     	;# 
   213  041F                     	;# 
   214  0493                     	;# 
   215  0493                     	;# 
   216  0494                     	;# 
   217  0495                     	;# 
   218  0496                     	;# 
   219  049A                     	;# 
   220  049A                     	;# 
   221  049B                     	;# 
   222  049C                     	;# 
   223  049D                     	;# 
   224  050F                     	;# 
   225  0510                     	;# 
   226  0511                     	;# 
   227  0512                     	;# 
   228  0590                     	;# 
   229  0591                     	;# 
   230  0592                     	;# 
   231  0592                     	;# 
   232  0592                     	;# 
   233  0593                     	;# 
   234  0593                     	;# 
   235  0597                     	;# 
   236  0598                     	;# 
   237  0598                     	;# 
   238  0617                     	;# 
   239  0617                     	;# 
   240  0618                     	;# 
   241  0619                     	;# 
   242  068D                     	;# 
   243  068E                     	;# 
   244  068F                     	;# 
   245  0690                     	;# 
   246  0691                     	;# 
   247  0692                     	;# 
   248  0693                     	;# 
   249  0694                     	;# 
   250  0695                     	;# 
   251  0696                     	;# 
   252  0697                     	;# 
   253  0698                     	;# 
   254  0699                     	;# 
   255  069A                     	;# 
   256  069B                     	;# 
   257  069C                     	;# 
   258  069D                     	;# 
   259  069E                     	;# 
   260  069F                     	;# 
   261  0794                     	;# 
   262  0795                     	;# 
   263  0796                     	;# 
   264  0797                     	;# 
   265  0798                     	;# 
   266  0799                     	;# 
   267  0D8E                     	;# 
   268  0D8F                     	;# 
   269  0D90                     	;# 
   270  0D91                     	;# 
   271  0D91                     	;# 
   272  0D92                     	;# 
   273  0D93                     	;# 
   274  0D93                     	;# 
   275  0D94                     	;# 
   276  0D95                     	;# 
   277  0D95                     	;# 
   278  0D96                     	;# 
   279  0D97                     	;# 
   280  0D97                     	;# 
   281  0D98                     	;# 
   282  0D99                     	;# 
   283  0D99                     	;# 
   284  0D9A                     	;# 
   285  0D9B                     	;# 
   286  0D9C                     	;# 
   287  0D9C                     	;# 
   288  0D9D                     	;# 
   289  0D9D                     	;# 
   290  0D9E                     	;# 
   291  0D9F                     	;# 
   292  0DA0                     	;# 
   293  0E0F                     	;# 
   294  0E10                     	;# 
   295  0E11                     	;# 
   296  0E12                     	;# 
   297  0E13                     	;# 
   298  0E14                     	;# 
   299  0E16                     	;# 
   300  0E19                     	;# 
   301  0E19                     	;# 
   302  0E19                     	;# 
   303  0E1A                     	;# 
   304  0E1B                     	;# 
   305  0E1C                     	;# 
   306  0E1C                     	;# 
   307  0E1C                     	;# 
   308  0E1D                     	;# 
   309  0E1E                     	;# 
   310  0E1F                     	;# 
   311  0E1F                     	;# 
   312  0E1F                     	;# 
   313  0E20                     	;# 
   314  0E21                     	;# 
   315  0E22                     	;# 
   316  0E24                     	;# 
   317  0E25                     	;# 
   318  0E28                     	;# 
   319  0E29                     	;# 
   320  0E2A                     	;# 
   321  0E2B                     	;# 
   322  0E2C                     	;# 
   323  0E2D                     	;# 
   324  0E30                     	;# 
   325  0E31                     	;# 
   326  0E32                     	;# 
   327  0E90                     	;# 
   328  0E91                     	;# 
   329  0E92                     	;# 
   330  0E94                     	;# 
   331  0E95                     	;# 
   332  0EA0                     	;# 
   333  0EA1                     	;# 
   334  0EA2                     	;# 
   335  0EA3                     	;# 
   336  0EA4                     	;# 
   337  0EA5                     	;# 
   338  0F0F                     	;# 
   339  0F10                     	;# 
   340  0F11                     	;# 
   341  0F12                     	;# 
   342  0F13                     	;# 
   343  0F14                     	;# 
   344  0F15                     	;# 
   345  0F16                     	;# 
   346  0F17                     	;# 
   347  0F18                     	;# 
   348  0F19                     	;# 
   349  0F1A                     	;# 
   350  0F1B                     	;# 
   351  0F1C                     	;# 
   352  0F1D                     	;# 
   353  0F1E                     	;# 
   354  0F1F                     	;# 
   355  0F20                     	;# 
   356  0F21                     	;# 
   357  0F22                     	;# 
   358  0F23                     	;# 
   359  0F24                     	;# 
   360  0F25                     	;# 
   361  0F26                     	;# 
   362  0F27                     	;# 
   363  0F28                     	;# 
   364  0F29                     	;# 
   365  0F2A                     	;# 
   366  0F2B                     	;# 
   367  0F2C                     	;# 
   368  0F2D                     	;# 
   369  0FE4                     	;# 
   370  0FE5                     	;# 
   371  0FE6                     	;# 
   372  0FE7                     	;# 
   373  0FE8                     	;# 
   374  0FE9                     	;# 
   375  0FEA                     	;# 
   376  0FEB                     	;# 
   377  0FED                     	;# 
   378  0FEE                     	;# 
   379  0FEF                     	;# 
   380  0000                     	;# 
   381  0001                     	;# 
   382  0002                     	;# 
   383  0003                     	;# 
   384  0004                     	;# 
   385  0005                     	;# 
   386  0006                     	;# 
   387  0007                     	;# 
   388  0008                     	;# 
   389  0009                     	;# 
   390  000A                     	;# 
   391  000B                     	;# 
   392  000C                     	;# 
   393  000E                     	;# 
   394  0011                     	;# 
   395  0012                     	;# 
   396  0013                     	;# 
   397  0014                     	;# 
   398  0015                     	;# 
   399  0016                     	;# 
   400  0016                     	;# 
   401  0017                     	;# 
   402  0018                     	;# 
   403  0019                     	;# 
   404  001A                     	;# 
   405  001A                     	;# 
   406  001B                     	;# 
   407  001B                     	;# 
   408  001C                     	;# 
   409  001D                     	;# 
   410  001E                     	;# 
   411  001F                     	;# 
   412  008C                     	;# 
   413  008E                     	;# 
   414  0091                     	;# 
   415  0092                     	;# 
   416  0093                     	;# 
   417  0094                     	;# 
   418  0095                     	;# 
   419  0096                     	;# 
   420  0097                     	;# 
   421  0098                     	;# 
   422  0099                     	;# 
   423  009A                     	;# 
   424  009B                     	;# 
   425  009B                     	;# 
   426  009C                     	;# 
   427  009D                     	;# 
   428  009E                     	;# 
   429  009F                     	;# 
   430  010C                     	;# 
   431  010E                     	;# 
   432  010F                     	;# 
   433  0110                     	;# 
   434  0111                     	;# 
   435  0112                     	;# 
   436  0113                     	;# 
   437  0114                     	;# 
   438  0115                     	;# 
   439  0116                     	;# 
   440  0117                     	;# 
   441  018C                     	;# 
   442  018E                     	;# 
   443  0191                     	;# 
   444  0191                     	;# 
   445  0192                     	;# 
   446  0193                     	;# 
   447  0193                     	;# 
   448  0194                     	;# 
   449  0195                     	;# 
   450  0196                     	;# 
   451  0199                     	;# 
   452  0199                     	;# 
   453  0199                     	;# 
   454  019A                     	;# 
   455  019A                     	;# 
   456  019A                     	;# 
   457  019B                     	;# 
   458  019B                     	;# 
   459  019B                     	;# 
   460  019B                     	;# 
   461  019B                     	;# 
   462  019C                     	;# 
   463  019C                     	;# 
   464  019C                     	;# 
   465  019D                     	;# 
   466  019D                     	;# 
   467  019D                     	;# 
   468  019E                     	;# 
   469  019E                     	;# 
   470  019E                     	;# 
   471  019F                     	;# 
   472  019F                     	;# 
   473  019F                     	;# 
   474  019F                     	;# 
   475  019F                     	;# 
   476  020C                     	;# 
   477  020E                     	;# 
   478  0211                     	;# 
   479  0211                     	;# 
   480  0212                     	;# 
   481  0212                     	;# 
   482  0213                     	;# 
   483  0213                     	;# 
   484  0214                     	;# 
   485  0214                     	;# 
   486  0215                     	;# 
   487  0215                     	;# 
   488  0215                     	;# 
   489  0215                     	;# 
   490  0216                     	;# 
   491  0216                     	;# 
   492  0217                     	;# 
   493  0217                     	;# 
   494  021D                     	;# 
   495  021E                     	;# 
   496  021F                     	;# 
   497  028C                     	;# 
   498  028E                     	;# 
   499  0291                     	;# 
   500  0291                     	;# 
   501  0292                     	;# 
   502  0293                     	;# 
   503  0294                     	;# 
   504  029E                     	;# 
   505  030C                     	;# 
   506  030E                     	;# 
   507  038C                     	;# 
   508  038E                     	;# 
   509  0391                     	;# 
   510  0392                     	;# 
   511  0393                     	;# 
   512  0397                     	;# 
   513  0398                     	;# 
   514  0399                     	;# 
   515  039B                     	;# 
   516  039C                     	;# 
   517  039D                     	;# 
   518  039E                     	;# 
   519  039F                     	;# 
   520  040E                     	;# 
   521  0413                     	;# 
   522  0413                     	;# 
   523  0414                     	;# 
   524  0414                     	;# 
   525  0415                     	;# 
   526  0416                     	;# 
   527  0417                     	;# 
   528  0418                     	;# 
   529  041A                     	;# 
   530  041A                     	;# 
   531  041B                     	;# 
   532  041B                     	;# 
   533  041C                     	;# 
   534  041D                     	;# 
   535  041E                     	;# 
   536  041F                     	;# 
   537  0493                     	;# 
   538  0493                     	;# 
   539  0494                     	;# 
   540  0495                     	;# 
   541  0496                     	;# 
   542  049A                     	;# 
   543  049A                     	;# 
   544  049B                     	;# 
   545  049C                     	;# 
   546  049D                     	;# 
   547  050F                     	;# 
   548  0510                     	;# 
   549  0511                     	;# 
   550  0512                     	;# 
   551  0590                     	;# 
   552  0591                     	;# 
   553  0592                     	;# 
   554  0592                     	;# 
   555  0592                     	;# 
   556  0593                     	;# 
   557  0593                     	;# 
   558  0597                     	;# 
   559  0598                     	;# 
   560  0598                     	;# 
   561  0617                     	;# 
   562  0617                     	;# 
   563  0618                     	;# 
   564  0619                     	;# 
   565  068D                     	;# 
   566  068E                     	;# 
   567  068F                     	;# 
   568  0690                     	;# 
   569  0691                     	;# 
   570  0692                     	;# 
   571  0693                     	;# 
   572  0694                     	;# 
   573  0695                     	;# 
   574  0696                     	;# 
   575  0697                     	;# 
   576  0698                     	;# 
   577  0699                     	;# 
   578  069A                     	;# 
   579  069B                     	;# 
   580  069C                     	;# 
   581  069D                     	;# 
   582  069E                     	;# 
   583  069F                     	;# 
   584  0794                     	;# 
   585  0795                     	;# 
   586  0796                     	;# 
   587  0797                     	;# 
   588  0798                     	;# 
   589  0799                     	;# 
   590  0D8E                     	;# 
   591  0D8F                     	;# 
   592  0D90                     	;# 
   593  0D91                     	;# 
   594  0D91                     	;# 
   595  0D92                     	;# 
   596  0D93                     	;# 
   597  0D93                     	;# 
   598  0D94                     	;# 
   599  0D95                     	;# 
   600  0D95                     	;# 
   601  0D96                     	;# 
   602  0D97                     	;# 
   603  0D97                     	;# 
   604  0D98                     	;# 
   605  0D99                     	;# 
   606  0D99                     	;# 
   607  0D9A                     	;# 
   608  0D9B                     	;# 
   609  0D9C                     	;# 
   610  0D9C                     	;# 
   611  0D9D                     	;# 
   612  0D9D                     	;# 
   613  0D9E                     	;# 
   614  0D9F                     	;# 
   615  0DA0                     	;# 
   616  0E0F                     	;# 
   617  0E10                     	;# 
   618  0E11                     	;# 
   619  0E12                     	;# 
   620  0E13                     	;# 
   621  0E14                     	;# 
   622  0E16                     	;# 
   623  0E19                     	;# 
   624  0E19                     	;# 
   625  0E19                     	;# 
   626  0E1A                     	;# 
   627  0E1B                     	;# 
   628  0E1C                     	;# 
   629  0E1C                     	;# 
   630  0E1C                     	;# 
   631  0E1D                     	;# 
   632  0E1E                     	;# 
   633  0E1F                     	;# 
   634  0E1F                     	;# 
   635  0E1F                     	;# 
   636  0E20                     	;# 
   637  0E21                     	;# 
   638  0E22                     	;# 
   639  0E24                     	;# 
   640  0E25                     	;# 
   641  0E28                     	;# 
   642  0E29                     	;# 
   643  0E2A                     	;# 
   644  0E2B                     	;# 
   645  0E2C                     	;# 
   646  0E2D                     	;# 
   647  0E30                     	;# 
   648  0E31                     	;# 
   649  0E32                     	;# 
   650  0E90                     	;# 
   651  0E91                     	;# 
   652  0E92                     	;# 
   653  0E94                     	;# 
   654  0E95                     	;# 
   655  0EA0                     	;# 
   656  0EA1                     	;# 
   657  0EA2                     	;# 
   658  0EA3                     	;# 
   659  0EA4                     	;# 
   660  0EA5                     	;# 
   661  0F0F                     	;# 
   662  0F10                     	;# 
   663  0F11                     	;# 
   664  0F12                     	;# 
   665  0F13                     	;# 
   666  0F14                     	;# 
   667  0F15                     	;# 
   668  0F16                     	;# 
   669  0F17                     	;# 
   670  0F18                     	;# 
   671  0F19                     	;# 
   672  0F1A                     	;# 
   673  0F1B                     	;# 
   674  0F1C                     	;# 
   675  0F1D                     	;# 
   676  0F1E                     	;# 
   677  0F1F                     	;# 
   678  0F20                     	;# 
   679  0F21                     	;# 
   680  0F22                     	;# 
   681  0F23                     	;# 
   682  0F24                     	;# 
   683  0F25                     	;# 
   684  0F26                     	;# 
   685  0F27                     	;# 
   686  0F28                     	;# 
   687  0F29                     	;# 
   688  0F2A                     	;# 
   689  0F2B                     	;# 
   690  0F2C                     	;# 
   691  0F2D                     	;# 
   692  0FE4                     	;# 
   693  0FE5                     	;# 
   694  0FE6                     	;# 
   695  0FE7                     	;# 
   696  0FE8                     	;# 
   697  0FE9                     	;# 
   698  0FEA                     	;# 
   699  0FEB                     	;# 
   700  0FED                     	;# 
   701  0FEE                     	;# 
   702  0FEF                     	;# 
   703  0000                     	;# 
   704  0001                     	;# 
   705  0002                     	;# 
   706  0003                     	;# 
   707  0004                     	;# 
   708  0005                     	;# 
   709  0006                     	;# 
   710  0007                     	;# 
   711  0008                     	;# 
   712  0009                     	;# 
   713  000A                     	;# 
   714  000B                     	;# 
   715  000C                     	;# 
   716  000E                     	;# 
   717  0011                     	;# 
   718  0012                     	;# 
   719  0013                     	;# 
   720  0014                     	;# 
   721  0015                     	;# 
   722  0016                     	;# 
   723  0016                     	;# 
   724  0017                     	;# 
   725  0018                     	;# 
   726  0019                     	;# 
   727  001A                     	;# 
   728  001A                     	;# 
   729  001B                     	;# 
   730  001B                     	;# 
   731  001C                     	;# 
   732  001D                     	;# 
   733  001E                     	;# 
   734  001F                     	;# 
   735  008C                     	;# 
   736  008E                     	;# 
   737  0091                     	;# 
   738  0092                     	;# 
   739  0093                     	;# 
   740  0094                     	;# 
   741  0095                     	;# 
   742  0096                     	;# 
   743  0097                     	;# 
   744  0098                     	;# 
   745  0099                     	;# 
   746  009A                     	;# 
   747  009B                     	;# 
   748  009B                     	;# 
   749  009C                     	;# 
   750  009D                     	;# 
   751  009E                     	;# 
   752  009F                     	;# 
   753  010C                     	;# 
   754  010E                     	;# 
   755  010F                     	;# 
   756  0110                     	;# 
   757  0111                     	;# 
   758  0112                     	;# 
   759  0113                     	;# 
   760  0114                     	;# 
   761  0115                     	;# 
   762  0116                     	;# 
   763  0117                     	;# 
   764  018C                     	;# 
   765  018E                     	;# 
   766  0191                     	;# 
   767  0191                     	;# 
   768  0192                     	;# 
   769  0193                     	;# 
   770  0193                     	;# 
   771  0194                     	;# 
   772  0195                     	;# 
   773  0196                     	;# 
   774  0199                     	;# 
   775  0199                     	;# 
   776  0199                     	;# 
   777  019A                     	;# 
   778  019A                     	;# 
   779  019A                     	;# 
   780  019B                     	;# 
   781  019B                     	;# 
   782  019B                     	;# 
   783  019B                     	;# 
   784  019B                     	;# 
   785  019C                     	;# 
   786  019C                     	;# 
   787  019C                     	;# 
   788  019D                     	;# 
   789  019D                     	;# 
   790  019D                     	;# 
   791  019E                     	;# 
   792  019E                     	;# 
   793  019E                     	;# 
   794  019F                     	;# 
   795  019F                     	;# 
   796  019F                     	;# 
   797  019F                     	;# 
   798  019F                     	;# 
   799  020C                     	;# 
   800  020E                     	;# 
   801  0211                     	;# 
   802  0211                     	;# 
   803  0212                     	;# 
   804  0212                     	;# 
   805  0213                     	;# 
   806  0213                     	;# 
   807  0214                     	;# 
   808  0214                     	;# 
   809  0215                     	;# 
   810  0215                     	;# 
   811  0215                     	;# 
   812  0215                     	;# 
   813  0216                     	;# 
   814  0216                     	;# 
   815  0217                     	;# 
   816  0217                     	;# 
   817  021D                     	;# 
   818  021E                     	;# 
   819  021F                     	;# 
   820  028C                     	;# 
   821  028E                     	;# 
   822  0291                     	;# 
   823  0291                     	;# 
   824  0292                     	;# 
   825  0293                     	;# 
   826  0294                     	;# 
   827  029E                     	;# 
   828  030C                     	;# 
   829  030E                     	;# 
   830  038C                     	;# 
   831  038E                     	;# 
   832  0391                     	;# 
   833  0392                     	;# 
   834  0393                     	;# 
   835  0397                     	;# 
   836  0398                     	;# 
   837  0399                     	;# 
   838  039B                     	;# 
   839  039C                     	;# 
   840  039D                     	;# 
   841  039E                     	;# 
   842  039F                     	;# 
   843  040E                     	;# 
   844  0413                     	;# 
   845  0413                     	;# 
   846  0414                     	;# 
   847  0414                     	;# 
   848  0415                     	;# 
   849  0416                     	;# 
   850  0417                     	;# 
   851  0418                     	;# 
   852  041A                     	;# 
   853  041A                     	;# 
   854  041B                     	;# 
   855  041B                     	;# 
   856  041C                     	;# 
   857  041D                     	;# 
   858  041E                     	;# 
   859  041F                     	;# 
   860  0493                     	;# 
   861  0493                     	;# 
   862  0494                     	;# 
   863  0495                     	;# 
   864  0496                     	;# 
   865  049A                     	;# 
   866  049A                     	;# 
   867  049B                     	;# 
   868  049C                     	;# 
   869  049D                     	;# 
   870  050F                     	;# 
   871  0510                     	;# 
   872  0511                     	;# 
   873  0512                     	;# 
   874  0590                     	;# 
   875  0591                     	;# 
   876  0592                     	;# 
   877  0592                     	;# 
   878  0592                     	;# 
   879  0593                     	;# 
   880  0593                     	;# 
   881  0597                     	;# 
   882  0598                     	;# 
   883  0598                     	;# 
   884  0617                     	;# 
   885  0617                     	;# 
   886  0618                     	;# 
   887  0619                     	;# 
   888  068D                     	;# 
   889  068E                     	;# 
   890  068F                     	;# 
   891  0690                     	;# 
   892  0691                     	;# 
   893  0692                     	;# 
   894  0693                     	;# 
   895  0694                     	;# 
   896  0695                     	;# 
   897  0696                     	;# 
   898  0697                     	;# 
   899  0698                     	;# 
   900  0699                     	;# 
   901  069A                     	;# 
   902  069B                     	;# 
   903  069C                     	;# 
   904  069D                     	;# 
   905  069E                     	;# 
   906  069F                     	;# 
   907  0794                     	;# 
   908  0795                     	;# 
   909  0796                     	;# 
   910  0797                     	;# 
   911  0798                     	;# 
   912  0799                     	;# 
   913  0D8E                     	;# 
   914  0D8F                     	;# 
   915  0D90                     	;# 
   916  0D91                     	;# 
   917  0D91                     	;# 
   918  0D92                     	;# 
   919  0D93                     	;# 
   920  0D93                     	;# 
   921  0D94                     	;# 
   922  0D95                     	;# 
   923  0D95                     	;# 
   924  0D96                     	;# 
   925  0D97                     	;# 
   926  0D97                     	;# 
   927  0D98                     	;# 
   928  0D99                     	;# 
   929  0D99                     	;# 
   930  0D9A                     	;# 
   931  0D9B                     	;# 
   932  0D9C                     	;# 
   933  0D9C                     	;# 
   934  0D9D                     	;# 
   935  0D9D                     	;# 
   936  0D9E                     	;# 
   937  0D9F                     	;# 
   938  0DA0                     	;# 
   939  0E0F                     	;# 
   940  0E10                     	;# 
   941  0E11                     	;# 
   942  0E12                     	;# 
   943  0E13                     	;# 
   944  0E14                     	;# 
   945  0E16                     	;# 
   946  0E19                     	;# 
   947  0E19                     	;# 
   948  0E19                     	;# 
   949  0E1A                     	;# 
   950  0E1B                     	;# 
   951  0E1C                     	;# 
   952  0E1C                     	;# 
   953  0E1C                     	;# 
   954  0E1D                     	;# 
   955  0E1E                     	;# 
   956  0E1F                     	;# 
   957  0E1F                     	;# 
   958  0E1F                     	;# 
   959  0E20                     	;# 
   960  0E21                     	;# 
   961  0E22                     	;# 
   962  0E24                     	;# 
   963  0E25                     	;# 
   964  0E28                     	;# 
   965  0E29                     	;# 
   966  0E2A                     	;# 
   967  0E2B                     	;# 
   968  0E2C                     	;# 
   969  0E2D                     	;# 
   970  0E30                     	;# 
   971  0E31                     	;# 
   972  0E32                     	;# 
   973  0E90                     	;# 
   974  0E91                     	;# 
   975  0E92                     	;# 
   976  0E94                     	;# 
   977  0E95                     	;# 
   978  0EA0                     	;# 
   979  0EA1                     	;# 
   980  0EA2                     	;# 
   981  0EA3                     	;# 
   982  0EA4                     	;# 
   983  0EA5                     	;# 
   984  0F0F                     	;# 
   985  0F10                     	;# 
   986  0F11                     	;# 
   987  0F12                     	;# 
   988  0F13                     	;# 
   989  0F14                     	;# 
   990  0F15                     	;# 
   991  0F16                     	;# 
   992  0F17                     	;# 
   993  0F18                     	;# 
   994  0F19                     	;# 
   995  0F1A                     	;# 
   996  0F1B                     	;# 
   997  0F1C                     	;# 
   998  0F1D                     	;# 
   999  0F1E                     	;# 
  1000  0F1F                     	;# 
  1001  0F20                     	;# 
  1002  0F21                     	;# 
  1003  0F22                     	;# 
  1004  0F23                     	;# 
  1005  0F24                     	;# 
  1006  0F25                     	;# 
  1007  0F26                     	;# 
  1008  0F27                     	;# 
  1009  0F28                     	;# 
  1010  0F29                     	;# 
  1011  0F2A                     	;# 
  1012  0F2B                     	;# 
  1013  0F2C                     	;# 
  1014  0F2D                     	;# 
  1015  0FE4                     	;# 
  1016  0FE5                     	;# 
  1017  0FE6                     	;# 
  1018  0FE7                     	;# 
  1019  0FE8                     	;# 
  1020  0FE9                     	;# 
  1021  0FEA                     	;# 
  1022  0FEB                     	;# 
  1023  0FED                     	;# 
  1024  0FEE                     	;# 
  1025  0FEF                     	;# 
  1026  0000                     	;# 
  1027  0001                     	;# 
  1028  0002                     	;# 
  1029  0003                     	;# 
  1030  0004                     	;# 
  1031  0005                     	;# 
  1032  0006                     	;# 
  1033  0007                     	;# 
  1034  0008                     	;# 
  1035  0009                     	;# 
  1036  000A                     	;# 
  1037  000B                     	;# 
  1038  000C                     	;# 
  1039  000E                     	;# 
  1040  0011                     	;# 
  1041  0012                     	;# 
  1042  0013                     	;# 
  1043  0014                     	;# 
  1044  0015                     	;# 
  1045  0016                     	;# 
  1046  0016                     	;# 
  1047  0017                     	;# 
  1048  0018                     	;# 
  1049  0019                     	;# 
  1050  001A                     	;# 
  1051  001A                     	;# 
  1052  001B                     	;# 
  1053  001B                     	;# 
  1054  001C                     	;# 
  1055  001D                     	;# 
  1056  001E                     	;# 
  1057  001F                     	;# 
  1058  008C                     	;# 
  1059  008E                     	;# 
  1060  0091                     	;# 
  1061  0092                     	;# 
  1062  0093                     	;# 
  1063  0094                     	;# 
  1064  0095                     	;# 
  1065  0096                     	;# 
  1066  0097                     	;# 
  1067  0098                     	;# 
  1068  0099                     	;# 
  1069  009A                     	;# 
  1070  009B                     	;# 
  1071  009B                     	;# 
  1072  009C                     	;# 
  1073  009D                     	;# 
  1074  009E                     	;# 
  1075  009F                     	;# 
  1076  010C                     	;# 
  1077  010E                     	;# 
  1078  010F                     	;# 
  1079  0110                     	;# 
  1080  0111                     	;# 
  1081  0112                     	;# 
  1082  0113                     	;# 
  1083  0114                     	;# 
  1084  0115                     	;# 
  1085  0116                     	;# 
  1086  0117                     	;# 
  1087  018C                     	;# 
  1088  018E                     	;# 
  1089  0191                     	;# 
  1090  0191                     	;# 
  1091  0192                     	;# 
  1092  0193                     	;# 
  1093  0193                     	;# 
  1094  0194                     	;# 
  1095  0195                     	;# 
  1096  0196                     	;# 
  1097  0199                     	;# 
  1098  0199                     	;# 
  1099  0199                     	;# 
  1100  019A                     	;# 
  1101  019A                     	;# 
  1102  019A                     	;# 
  1103  019B                     	;# 
  1104  019B                     	;# 
  1105  019B                     	;# 
  1106  019B                     	;# 
  1107  019B                     	;# 
  1108  019C                     	;# 
  1109  019C                     	;# 
  1110  019C                     	;# 
  1111  019D                     	;# 
  1112  019D                     	;# 
  1113  019D                     	;# 
  1114  019E                     	;# 
  1115  019E                     	;# 
  1116  019E                     	;# 
  1117  019F                     	;# 
  1118  019F                     	;# 
  1119  019F                     	;# 
  1120  019F                     	;# 
  1121  019F                     	;# 
  1122  020C                     	;# 
  1123  020E                     	;# 
  1124  0211                     	;# 
  1125  0211                     	;# 
  1126  0212                     	;# 
  1127  0212                     	;# 
  1128  0213                     	;# 
  1129  0213                     	;# 
  1130  0214                     	;# 
  1131  0214                     	;# 
  1132  0215                     	;# 
  1133  0215                     	;# 
  1134  0215                     	;# 
  1135  0215                     	;# 
  1136  0216                     	;# 
  1137  0216                     	;# 
  1138  0217                     	;# 
  1139  0217                     	;# 
  1140  021D                     	;# 
  1141  021E                     	;# 
  1142  021F                     	;# 
  1143  028C                     	;# 
  1144  028E                     	;# 
  1145  0291                     	;# 
  1146  0291                     	;# 
  1147  0292                     	;# 
  1148  0293                     	;# 
  1149  0294                     	;# 
  1150  029E                     	;# 
  1151  030C                     	;# 
  1152  030E                     	;# 
  1153  038C                     	;# 
  1154  038E                     	;# 
  1155  0391                     	;# 
  1156  0392                     	;# 
  1157  0393                     	;# 
  1158  0397                     	;# 
  1159  0398                     	;# 
  1160  0399                     	;# 
  1161  039B                     	;# 
  1162  039C                     	;# 
  1163  039D                     	;# 
  1164  039E                     	;# 
  1165  039F                     	;# 
  1166  040E                     	;# 
  1167  0413                     	;# 
  1168  0413                     	;# 
  1169  0414                     	;# 
  1170  0414                     	;# 
  1171  0415                     	;# 
  1172  0416                     	;# 
  1173  0417                     	;# 
  1174  0418                     	;# 
  1175  041A                     	;# 
  1176  041A                     	;# 
  1177  041B                     	;# 
  1178  041B                     	;# 
  1179  041C                     	;# 
  1180  041D                     	;# 
  1181  041E                     	;# 
  1182  041F                     	;# 
  1183  0493                     	;# 
  1184  0493                     	;# 
  1185  0494                     	;# 
  1186  0495                     	;# 
  1187  0496                     	;# 
  1188  049A                     	;# 
  1189  049A                     	;# 
  1190  049B                     	;# 
  1191  049C                     	;# 
  1192  049D                     	;# 
  1193  050F                     	;# 
  1194  0510                     	;# 
  1195  0511                     	;# 
  1196  0512                     	;# 
  1197  0590                     	;# 
  1198  0591                     	;# 
  1199  0592                     	;# 
  1200  0592                     	;# 
  1201  0592                     	;# 
  1202  0593                     	;# 
  1203  0593                     	;# 
  1204  0597                     	;# 
  1205  0598                     	;# 
  1206  0598                     	;# 
  1207  0617                     	;# 
  1208  0617                     	;# 
  1209  0618                     	;# 
  1210  0619                     	;# 
  1211  068D                     	;# 
  1212  068E                     	;# 
  1213  068F                     	;# 
  1214  0690                     	;# 
  1215  0691                     	;# 
  1216  0692                     	;# 
  1217  0693                     	;# 
  1218  0694                     	;# 
  1219  0695                     	;# 
  1220  0696                     	;# 
  1221  0697                     	;# 
  1222  0698                     	;# 
  1223  0699                     	;# 
  1224  069A                     	;# 
  1225  069B                     	;# 
  1226  069C                     	;# 
  1227  069D                     	;# 
  1228  069E                     	;# 
  1229  069F                     	;# 
  1230  0794                     	;# 
  1231  0795                     	;# 
  1232  0796                     	;# 
  1233  0797                     	;# 
  1234  0798                     	;# 
  1235  0799                     	;# 
  1236  0D8E                     	;# 
  1237  0D8F                     	;# 
  1238  0D90                     	;# 
  1239  0D91                     	;# 
  1240  0D91                     	;# 
  1241  0D92                     	;# 
  1242  0D93                     	;# 
  1243  0D93                     	;# 
  1244  0D94                     	;# 
  1245  0D95                     	;# 
  1246  0D95                     	;# 
  1247  0D96                     	;# 
  1248  0D97                     	;# 
  1249  0D97                     	;# 
  1250  0D98                     	;# 
  1251  0D99                     	;# 
  1252  0D99                     	;# 
  1253  0D9A                     	;# 
  1254  0D9B                     	;# 
  1255  0D9C                     	;# 
  1256  0D9C                     	;# 
  1257  0D9D                     	;# 
  1258  0D9D                     	;# 
  1259  0D9E                     	;# 
  1260  0D9F                     	;# 
  1261  0DA0                     	;# 
  1262  0E0F                     	;# 
  1263  0E10                     	;# 
  1264  0E11                     	;# 
  1265  0E12                     	;# 
  1266  0E13                     	;# 
  1267  0E14                     	;# 
  1268  0E16                     	;# 
  1269  0E19                     	;# 
  1270  0E19                     	;# 
  1271  0E19                     	;# 
  1272  0E1A                     	;# 
  1273  0E1B                     	;# 
  1274  0E1C                     	;# 
  1275  0E1C                     	;# 
  1276  0E1C                     	;# 
  1277  0E1D                     	;# 
  1278  0E1E                     	;# 
  1279  0E1F                     	;# 
  1280  0E1F                     	;# 
  1281  0E1F                     	;# 
  1282  0E20                     	;# 
  1283  0E21                     	;# 
  1284  0E22                     	;# 
  1285  0E24                     	;# 
  1286  0E25                     	;# 
  1287  0E28                     	;# 
  1288  0E29                     	;# 
  1289  0E2A                     	;# 
  1290  0E2B                     	;# 
  1291  0E2C                     	;# 
  1292  0E2D                     	;# 
  1293  0E30                     	;# 
  1294  0E31                     	;# 
  1295  0E32                     	;# 
  1296  0E90                     	;# 
  1297  0E91                     	;# 
  1298  0E92                     	;# 
  1299  0E94                     	;# 
  1300  0E95                     	;# 
  1301  0EA0                     	;# 
  1302  0EA1                     	;# 
  1303  0EA2                     	;# 
  1304  0EA3                     	;# 
  1305  0EA4                     	;# 
  1306  0EA5                     	;# 
  1307  0F0F                     	;# 
  1308  0F10                     	;# 
  1309  0F11                     	;# 
  1310  0F12                     	;# 
  1311  0F13                     	;# 
  1312  0F14                     	;# 
  1313  0F15                     	;# 
  1314  0F16                     	;# 
  1315  0F17                     	;# 
  1316  0F18                     	;# 
  1317  0F19                     	;# 
  1318  0F1A                     	;# 
  1319  0F1B                     	;# 
  1320  0F1C                     	;# 
  1321  0F1D                     	;# 
  1322  0F1E                     	;# 
  1323  0F1F                     	;# 
  1324  0F20                     	;# 
  1325  0F21                     	;# 
  1326  0F22                     	;# 
  1327  0F23                     	;# 
  1328  0F24                     	;# 
  1329  0F25                     	;# 
  1330  0F26                     	;# 
  1331  0F27                     	;# 
  1332  0F28                     	;# 
  1333  0F29                     	;# 
  1334  0F2A                     	;# 
  1335  0F2B                     	;# 
  1336  0F2C                     	;# 
  1337  0F2D                     	;# 
  1338  0FE4                     	;# 
  1339  0FE5                     	;# 
  1340  0FE6                     	;# 
  1341  0FE7                     	;# 
  1342  0FE8                     	;# 
  1343  0FE9                     	;# 
  1344  0FEA                     	;# 
  1345  0FEB                     	;# 
  1346  0FED                     	;# 
  1347  0FEE                     	;# 
  1348  0FEF                     	;# 
  1349  0097                     _WDTCON	set	151
  1350  0098                     _OSCTUNE	set	152
  1351  009A                     _OSCSTAT	set	154
  1352  0099                     _OSCCON	set	153
  1353  0095                     _OPTION_REGbits	set	149
  1354  008E                     _TRISC	set	142
  1355  008C                     _TRISA	set	140
  1356  010C                     _LATAbits	set	268
  1357  010E                     _LATC	set	270
  1358  010C                     _LATA	set	268
  1359  018C                     _ANSELA	set	396
  1360  018E                     _ANSELC	set	398
  1361  021D                     _BORCON	set	541
  1362  020E                     _WPUC	set	526
  1363  020C                     _WPUA	set	524
  1364  028E                     _ODCONC	set	654
  1365  028C                     _ODCONA	set	652
  1366  030E                     _SLRCONC	set	782
  1367  030C                     _SLRCONA	set	780
  1368  038E                     _INLVLC	set	910
  1369  038C                     _INLVLA	set	908
  1370                           
  1371                           	psect	cinit
  1372  07F5                     start_initialization:	
  1373                           ; #config settings
  1374                           
  1375  07F5                     __initialization:
  1376                           
  1377                           ; Clear objects allocated to COMMON
  1378  07F5  01FC               	clrf	__pbssCOMMON& (0+127)
  1379                           
  1380                           ; Clear objects allocated to BANK0
  1381  07F6  0020               	movlb	0	; select bank0
  1382  07F7  01A0               	clrf	__pbssBANK0& (0+127)
  1383  07F8  01A1               	clrf	(__pbssBANK0+1)& (0+127)
  1384  07F9  01A2               	clrf	(__pbssBANK0+2)& (0+127)
  1385  07FA  01A3               	clrf	(__pbssBANK0+3)& (0+127)
  1386  07FB  01A4               	clrf	(__pbssBANK0+4)& (0+127)
  1387  07FC  01A5               	clrf	(__pbssBANK0+5)& (0+127)
  1388  07FD                     end_of_initialization:	
  1389                           ;End of C runtime variable initialization code
  1390                           
  1391  07FD                     __end_of__initialization:
  1392  07FD  0020               	movlb	0
  1393  07FE  3187  2F5C         	ljmp	_main	;jump to C main() function
  1394                           
  1395                           	psect	bssCOMMON
  1396  007C                     __pbssCOMMON:
  1397  007C                     byteFrom@F6899:
  1398  007C                     	ds	1
  1399                           
  1400                           	psect	bssBANK0
  1401  0020                     __pbssBANK0:
  1402  0020                     main@F6900:
  1403  0020                     	ds	3
  1404  0023                     main@F6898:
  1405  0023                     	ds	3
  1406                           
  1407                           	psect	cstackCOMMON
  1408  0070                     __pcstackCOMMON:
  1409  0070                     ?_SYSTEM_Initialize:
  1410  0070                     ??_SYSTEM_Initialize:	
  1411                           ; 1 bytes @ 0x0
  1412                           
  1413  0070                     ?_byteFrom:	
  1414                           ; 1 bytes @ 0x0
  1415                           
  1416  0070                     ??_byteFrom:	
  1417                           ; 1 bytes @ 0x0
  1418                           
  1419  0070                     ?_OSCILLATOR_Initialize:	
  1420                           ; 1 bytes @ 0x0
  1421                           
  1422  0070                     ??_OSCILLATOR_Initialize:	
  1423                           ; 1 bytes @ 0x0
  1424                           
  1425  0070                     ?_WDT_Initialize:	
  1426                           ; 1 bytes @ 0x0
  1427                           
  1428  0070                     ??_WDT_Initialize:	
  1429                           ; 1 bytes @ 0x0
  1430                           
  1431  0070                     ?_sendByte:	
  1432                           ; 1 bytes @ 0x0
  1433                           
  1434  0070                     ??_sendByte:	
  1435                           ; 1 bytes @ 0x0
  1436                           
  1437  0070                     ?_onePulse:	
  1438                           ; 1 bytes @ 0x0
  1439                           
  1440  0070                     ??_onePulse:	
  1441                           ; 1 bytes @ 0x0
  1442                           
  1443  0070                     ?_zeroPulse:	
  1444                           ; 1 bytes @ 0x0
  1445                           
  1446  0070                     ??_zeroPulse:	
  1447                           ; 1 bytes @ 0x0
  1448                           
  1449  0070                     ?_main:	
  1450                           ; 1 bytes @ 0x0
  1451                           
  1452  0070                     ?_PIN_MANAGER_Initialize:	
  1453                           ; 1 bytes @ 0x0
  1454                           
  1455  0070                     ??_PIN_MANAGER_Initialize:	
  1456                           ; 1 bytes @ 0x0
  1457                           
  1458  0070                     sendByte@byte:	
  1459                           ; 1 bytes @ 0x0
  1460                           
  1461                           
  1462                           ; 1 bytes @ 0x0
  1463  0070                     	ds	1
  1464  0071                     ?_writeColor:
  1465  0071                     byteFrom@n:	
  1466                           ; 1 bytes @ 0x1
  1467                           
  1468  0071                     writeColor@color:	
  1469                           ; 1 bytes @ 0x1
  1470                           
  1471                           
  1472                           ; 3 bytes @ 0x1
  1473  0071                     	ds	1
  1474  0072                     byteFrom@byte:
  1475                           
  1476                           ; 1 bytes @ 0x2
  1477  0072                     	ds	2
  1478  0074                     ??_writeColor:
  1479  0074                     ??_main:	
  1480                           ; 1 bytes @ 0x4
  1481                           
  1482                           
  1483                           ; 1 bytes @ 0x4
  1484  0074                     	ds	2
  1485  0076                     main@redColor:
  1486                           
  1487                           ; 3 bytes @ 0x6
  1488  0076                     	ds	3
  1489  0079                     main@greenColor:
  1490                           
  1491                           ; 3 bytes @ 0x9
  1492  0079                     	ds	3
  1493                           
  1494                           	psect	maintext
  1495  075C                     __pmaintext:	
  1496 ;;
  1497 ;;Main: autosize = 0, tempsize = 2, incstack = 0, save=0
  1498 ;;
  1499 ;; *************** function _main *****************
  1500 ;; Defined at:
  1501 ;;		line 50 in file "main.c"
  1502 ;; Parameters:    Size  Location     Type
  1503 ;;		None
  1504 ;; Auto vars:     Size  Location     Type
  1505 ;;  greenColor      3    9[COMMON] struct .
  1506 ;;  redColor        3    6[COMMON] struct .
  1507 ;; Return value:  Size  Location     Type
  1508 ;;                  1    wreg      void 
  1509 ;; Registers used:
  1510 ;;		wreg, status,2, status,0, pclath, cstack
  1511 ;; Tracked objects:
  1512 ;;		On entry : B1F/0
  1513 ;;		On exit  : 0/0
  1514 ;;		Unchanged: 0/0
  1515 ;; Data sizes:     COMMON   BANK0   BANK1   BANK2   BANK3   BANK4   BANK5   BANK6
  1516 ;;      Params:         0       0       0       0       0       0       0       0
  1517 ;;      Locals:         6       0       0       0       0       0       0       0
  1518 ;;      Temps:          2       0       0       0       0       0       0       0
  1519 ;;      Totals:         8       0       0       0       0       0       0       0
  1520 ;;Total ram usage:        8 bytes
  1521 ;; Hardware stack levels required when called: 3
  1522 ;; This function calls:
  1523 ;;		_SYSTEM_Initialize
  1524 ;;		_byteFrom
  1525 ;;		_writeColor
  1526 ;; This function is called by:
  1527 ;;		Startup code after reset
  1528 ;; This function uses a non-reentrant model
  1529 ;;
  1530                           
  1531  075C                     _main:	
  1532                           ;psect for function _main
  1533                           
  1534  075C                     l856:	
  1535                           ;incstack = 0
  1536                           ; Regs used in _main: [wreg+status,2+status,0+pclath+cstack]
  1537                           
  1538                           
  1539                           ;main.c: 53:     SYSTEM_Initialize();
  1540  075C  3187  271A  3187   	fcall	_SYSTEM_Initialize
  1541  075F                     l858:
  1542                           
  1543                           ;main.c: 70:     Color_t redColor = {
  1544  075F  0020               	movlb	0	; select bank0
  1545  0760  0823               	movf	main@F6898,w
  1546  0761  00F6               	movwf	main@redColor
  1547  0762  0824               	movf	main@F6898+1,w
  1548  0763  00F7               	movwf	main@redColor+1
  1549  0764  0825               	movf	main@F6898+2,w
  1550  0765  00F8               	movwf	main@redColor+2
  1551  0766                     l860:
  1552  0766  3032               	movlw	50
  1553  0767  3187  2724  3187   	fcall	_byteFrom
  1554  076A  00F4               	movwf	??_main
  1555  076B  0874               	movf	??_main,w
  1556  076C  00F6               	movwf	main@redColor
  1557  076D                     l862:
  1558                           
  1559                           ;main.c: 74:     Color_t greenColor = {
  1560  076D  0020               	movlb	0	; select bank0
  1561  076E  0820               	movf	main@F6900,w
  1562  076F  00F9               	movwf	main@greenColor
  1563  0770  0821               	movf	main@F6900+1,w
  1564  0771  00FA               	movwf	main@greenColor+1
  1565  0772  0822               	movf	main@F6900+2,w
  1566  0773  00FB               	movwf	main@greenColor+2
  1567  0774                     l864:
  1568  0774  3032               	movlw	50
  1569  0775  3187  2724  3187   	fcall	_byteFrom
  1570  0778  00F4               	movwf	??_main
  1571  0779  0874               	movf	??_main,w
  1572  077A  00FA               	movwf	main@greenColor+1
  1573  077B                     l17:	
  1574                           ;main.c: 78:     while (1)
  1575                           
  1576                           
  1577                           ;main.c: 79:     {;main.c: 80:         writeColor(redColor);
  1578  077B  0876               	movf	main@redColor,w
  1579  077C  00F1               	movwf	writeColor@color
  1580  077D  0877               	movf	main@redColor+1,w
  1581  077E  00F2               	movwf	writeColor@color+1
  1582  077F  0878               	movf	main@redColor+2,w
  1583  0780  00F3               	movwf	writeColor@color+2
  1584  0781  3187  272F  3187   	fcall	_writeColor
  1585                           
  1586                           ;main.c: 81:         writeColor(greenColor);
  1587  0784  0879               	movf	main@greenColor,w
  1588  0785  00F1               	movwf	writeColor@color
  1589  0786  087A               	movf	main@greenColor+1,w
  1590  0787  00F2               	movwf	writeColor@color+1
  1591  0788  087B               	movf	main@greenColor+2,w
  1592  0789  00F3               	movwf	writeColor@color+2
  1593  078A  3187  272F  3187   	fcall	_writeColor
  1594  078D                     l866:
  1595                           
  1596                           ;main.c: 82:         _delay((unsigned long)((500)*(16000000/4000.0)));
  1597  078D  300B               	movlw	11
  1598  078E  00F5               	movwf	??_main+1
  1599  078F  3026               	movlw	38
  1600  0790  00F4               	movwf	??_main
  1601  0791  305E               	movlw	94
  1602  0792                     u177:
  1603  0792  0B89               	decfsz	9,f
  1604  0793  2F92               	goto	u177
  1605  0794  0BF4               	decfsz	??_main,f
  1606  0795  2F92               	goto	u177
  1607  0796  0BF5               	decfsz	??_main+1,f
  1608  0797  2F92               	goto	u177
  1609  0798  2F7B               	goto	l17
  1610  0799  3180  2802         	ljmp	start
  1611  079B                     __end_of_main:
  1612                           
  1613                           	psect	text1
  1614  072F                     __ptext1:	
  1615 ;; *************** function _writeColor *****************
  1616 ;; Defined at:
  1617 ;;		line 10 in file "led_strip.c"
  1618 ;; Parameters:    Size  Location     Type
  1619 ;;  color           3    1[COMMON] struct .
  1620 ;; Auto vars:     Size  Location     Type
  1621 ;;		None
  1622 ;; Return value:  Size  Location     Type
  1623 ;;                  1    wreg      void 
  1624 ;; Registers used:
  1625 ;;		wreg, status,2, status,0, pclath, cstack
  1626 ;; Tracked objects:
  1627 ;;		On entry : 0/0
  1628 ;;		On exit  : 0/0
  1629 ;;		Unchanged: 0/0
  1630 ;; Data sizes:     COMMON   BANK0   BANK1   BANK2   BANK3   BANK4   BANK5   BANK6
  1631 ;;      Params:         3       0       0       0       0       0       0       0
  1632 ;;      Locals:         0       0       0       0       0       0       0       0
  1633 ;;      Temps:          0       0       0       0       0       0       0       0
  1634 ;;      Totals:         3       0       0       0       0       0       0       0
  1635 ;;Total ram usage:        3 bytes
  1636 ;; Hardware stack levels used: 1
  1637 ;; Hardware stack levels required when called: 2
  1638 ;; This function calls:
  1639 ;;		_sendByte
  1640 ;; This function is called by:
  1641 ;;		_main
  1642 ;; This function uses a non-reentrant model
  1643 ;;
  1644                           
  1645  072F                     _writeColor:	
  1646                           ;psect for function _writeColor
  1647                           
  1648  072F                     l854:	
  1649                           ;incstack = 0
  1650                           ; Regs used in _writeColor: [wreg+status,2+status,0+pclath+cstack]
  1651                           
  1652                           
  1653                           ;led_strip.c: 11:     sendByte(color.g);
  1654  072F  0872               	movf	writeColor@color+1,w
  1655  0730  3187  279B  3187   	fcall	_sendByte
  1656                           
  1657                           ;led_strip.c: 12:     sendByte(color.r);
  1658  0733  0871               	movf	writeColor@color,w
  1659  0734  3187  279B  3187   	fcall	_sendByte
  1660                           
  1661                           ;led_strip.c: 13:     sendByte(color.b);
  1662  0737  0873               	movf	writeColor@color+2,w
  1663  0738  3187  279B  3187   	fcall	_sendByte
  1664  073B                     l97:
  1665  073B  0008               	return
  1666  073C                     __end_of_writeColor:
  1667                           
  1668                           	psect	text2
  1669  079B                     __ptext2:	
  1670 ;; *************** function _sendByte *****************
  1671 ;; Defined at:
  1672 ;;		line 16 in file "led_strip.c"
  1673 ;; Parameters:    Size  Location     Type
  1674 ;;  byte            1    wreg     struct .
  1675 ;; Auto vars:     Size  Location     Type
  1676 ;;  byte            1    0[COMMON] struct .
  1677 ;; Return value:  Size  Location     Type
  1678 ;;                  1    wreg      void 
  1679 ;; Registers used:
  1680 ;;		wreg, status,2, status,0, pclath, cstack
  1681 ;; Tracked objects:
  1682 ;;		On entry : 0/0
  1683 ;;		On exit  : 0/0
  1684 ;;		Unchanged: 0/0
  1685 ;; Data sizes:     COMMON   BANK0   BANK1   BANK2   BANK3   BANK4   BANK5   BANK6
  1686 ;;      Params:         0       0       0       0       0       0       0       0
  1687 ;;      Locals:         1       0       0       0       0       0       0       0
  1688 ;;      Temps:          0       0       0       0       0       0       0       0
  1689 ;;      Totals:         1       0       0       0       0       0       0       0
  1690 ;;Total ram usage:        1 bytes
  1691 ;; Hardware stack levels used: 1
  1692 ;; Hardware stack levels required when called: 1
  1693 ;; This function calls:
  1694 ;;		_onePulse
  1695 ;;		_zeroPulse
  1696 ;; This function is called by:
  1697 ;;		_writeColor
  1698 ;; This function uses a non-reentrant model
  1699 ;;
  1700                           
  1701  079B                     _sendByte:	
  1702                           ;psect for function _sendByte
  1703                           
  1704                           
  1705                           ;incstack = 0
  1706                           ; Regs used in _sendByte: [wreg+status,2+status,0+pclath+cstack]
  1707                           ;sendByte@byte stored from wreg
  1708  079B  00F0               	movwf	sendByte@byte
  1709  079C                     l800:
  1710                           
  1711                           ;led_strip.c: 17:     byte.b7?onePulse():zeroPulse();
  1712  079C  1FF0               	btfss	sendByte@byte,7
  1713  079D  2F9F               	goto	u91
  1714  079E  2FA0               	goto	u90
  1715  079F                     u91:
  1716  079F  2FA4               	goto	l804
  1717  07A0                     u90:
  1718  07A0                     l802:
  1719  07A0  3187  270C  3187   	fcall	_onePulse
  1720  07A3  2FA7               	goto	l806
  1721  07A4                     l804:
  1722  07A4  3187  2708  3187   	fcall	_zeroPulse
  1723  07A7                     l806:
  1724                           
  1725                           ;led_strip.c: 18:     byte.b6?onePulse():zeroPulse();
  1726  07A7  1F70               	btfss	sendByte@byte,6
  1727  07A8  2FAA               	goto	u101
  1728  07A9  2FAB               	goto	u100
  1729  07AA                     u101:
  1730  07AA  2FAF               	goto	l810
  1731  07AB                     u100:
  1732  07AB                     l808:
  1733  07AB  3187  270C  3187   	fcall	_onePulse
  1734  07AE  2FB2               	goto	l812
  1735  07AF                     l810:
  1736  07AF  3187  2708  3187   	fcall	_zeroPulse
  1737  07B2                     l812:
  1738                           
  1739                           ;led_strip.c: 19:     byte.b5?onePulse():zeroPulse();
  1740  07B2  1EF0               	btfss	sendByte@byte,5
  1741  07B3  2FB5               	goto	u111
  1742  07B4  2FB6               	goto	u110
  1743  07B5                     u111:
  1744  07B5  2FBA               	goto	l816
  1745  07B6                     u110:
  1746  07B6                     l814:
  1747  07B6  3187  270C  3187   	fcall	_onePulse
  1748  07B9  2FBD               	goto	l818
  1749  07BA                     l816:
  1750  07BA  3187  2708  3187   	fcall	_zeroPulse
  1751  07BD                     l818:
  1752                           
  1753                           ;led_strip.c: 20:     byte.b4?onePulse():zeroPulse();
  1754  07BD  1E70               	btfss	sendByte@byte,4
  1755  07BE  2FC0               	goto	u121
  1756  07BF  2FC1               	goto	u120
  1757  07C0                     u121:
  1758  07C0  2FC5               	goto	l822
  1759  07C1                     u120:
  1760  07C1                     l820:
  1761  07C1  3187  270C  3187   	fcall	_onePulse
  1762  07C4  2FC8               	goto	l824
  1763  07C5                     l822:
  1764  07C5  3187  2708  3187   	fcall	_zeroPulse
  1765  07C8                     l824:
  1766                           
  1767                           ;led_strip.c: 21:     byte.b3?onePulse():zeroPulse();
  1768  07C8  1DF0               	btfss	sendByte@byte,3
  1769  07C9  2FCB               	goto	u131
  1770  07CA  2FCC               	goto	u130
  1771  07CB                     u131:
  1772  07CB  2FD0               	goto	l828
  1773  07CC                     u130:
  1774  07CC                     l826:
  1775  07CC  3187  270C  3187   	fcall	_onePulse
  1776  07CF  2FD3               	goto	l830
  1777  07D0                     l828:
  1778  07D0  3187  2708  3187   	fcall	_zeroPulse
  1779  07D3                     l830:
  1780                           
  1781                           ;led_strip.c: 22:     byte.b2?onePulse():zeroPulse();
  1782  07D3  1D70               	btfss	sendByte@byte,2
  1783  07D4  2FD6               	goto	u141
  1784  07D5  2FD7               	goto	u140
  1785  07D6                     u141:
  1786  07D6  2FDB               	goto	l834
  1787  07D7                     u140:
  1788  07D7                     l832:
  1789  07D7  3187  270C  3187   	fcall	_onePulse
  1790  07DA  2FDE               	goto	l836
  1791  07DB                     l834:
  1792  07DB  3187  2708  3187   	fcall	_zeroPulse
  1793  07DE                     l836:
  1794                           
  1795                           ;led_strip.c: 23:     byte.b1?onePulse():zeroPulse();
  1796  07DE  1CF0               	btfss	sendByte@byte,1
  1797  07DF  2FE1               	goto	u151
  1798  07E0  2FE2               	goto	u150
  1799  07E1                     u151:
  1800  07E1  2FE6               	goto	l840
  1801  07E2                     u150:
  1802  07E2                     l838:
  1803  07E2  3187  270C  3187   	fcall	_onePulse
  1804  07E5  2FE9               	goto	l842
  1805  07E6                     l840:
  1806  07E6  3187  2708  3187   	fcall	_zeroPulse
  1807  07E9                     l842:
  1808                           
  1809                           ;led_strip.c: 24:     byte.b0?onePulse():zeroPulse();
  1810  07E9  1C70               	btfss	sendByte@byte,0
  1811  07EA  2FEC               	goto	u161
  1812  07EB  2FED               	goto	u160
  1813  07EC                     u161:
  1814  07EC  2FF1               	goto	l846
  1815  07ED                     u160:
  1816  07ED                     l844:
  1817  07ED  3187  270C  3187   	fcall	_onePulse
  1818  07F0  2FF4               	goto	l132
  1819  07F1                     l846:
  1820  07F1  3187  2708  3187   	fcall	_zeroPulse
  1821  07F4                     l132:
  1822  07F4  0008               	return
  1823  07F5                     __end_of_sendByte:
  1824                           
  1825                           	psect	text3
  1826  0708                     __ptext3:	
  1827 ;; *************** function _zeroPulse *****************
  1828 ;; Defined at:
  1829 ;;		line 34 in file "led_strip.c"
  1830 ;; Parameters:    Size  Location     Type
  1831 ;;		None
  1832 ;; Auto vars:     Size  Location     Type
  1833 ;;		None
  1834 ;; Return value:  Size  Location     Type
  1835 ;;                  1    wreg      void 
  1836 ;; Registers used:
  1837 ;;		None
  1838 ;; Tracked objects:
  1839 ;;		On entry : 0/0
  1840 ;;		On exit  : 0/0
  1841 ;;		Unchanged: 0/0
  1842 ;; Data sizes:     COMMON   BANK0   BANK1   BANK2   BANK3   BANK4   BANK5   BANK6
  1843 ;;      Params:         0       0       0       0       0       0       0       0
  1844 ;;      Locals:         0       0       0       0       0       0       0       0
  1845 ;;      Temps:          0       0       0       0       0       0       0       0
  1846 ;;      Totals:         0       0       0       0       0       0       0       0
  1847 ;;Total ram usage:        0 bytes
  1848 ;; Hardware stack levels used: 1
  1849 ;; This function calls:
  1850 ;;		Nothing
  1851 ;; This function is called by:
  1852 ;;		_sendByte
  1853 ;; This function uses a non-reentrant model
  1854 ;;
  1855                           
  1856  0708                     _zeroPulse:	
  1857                           ;psect for function _zeroPulse
  1858                           
  1859  0708                     l768:	
  1860                           ;incstack = 0
  1861                           ; Regs used in _zeroPulse: []
  1862                           
  1863                           
  1864                           ;led_strip.c: 35:     LATAbits.LATA0 = 1;
  1865  0708  0022               	movlb	2	; select bank2
  1866  0709  140C               	bsf	12,0	;volatile
  1867                           
  1868                           ;led_strip.c: 36:     LATAbits.LATA0 = 0;
  1869  070A  100C               	bcf	12,0	;volatile
  1870  070B                     l138:
  1871  070B  0008               	return
  1872  070C                     __end_of_zeroPulse:
  1873                           
  1874                           	psect	text4
  1875  070C                     __ptext4:	
  1876 ;; *************** function _onePulse *****************
  1877 ;; Defined at:
  1878 ;;		line 27 in file "led_strip.c"
  1879 ;; Parameters:    Size  Location     Type
  1880 ;;		None
  1881 ;; Auto vars:     Size  Location     Type
  1882 ;;		None
  1883 ;; Return value:  Size  Location     Type
  1884 ;;                  1    wreg      void 
  1885 ;; Registers used:
  1886 ;;		None
  1887 ;; Tracked objects:
  1888 ;;		On entry : 0/0
  1889 ;;		On exit  : 0/0
  1890 ;;		Unchanged: 0/0
  1891 ;; Data sizes:     COMMON   BANK0   BANK1   BANK2   BANK3   BANK4   BANK5   BANK6
  1892 ;;      Params:         0       0       0       0       0       0       0       0
  1893 ;;      Locals:         0       0       0       0       0       0       0       0
  1894 ;;      Temps:          0       0       0       0       0       0       0       0
  1895 ;;      Totals:         0       0       0       0       0       0       0       0
  1896 ;;Total ram usage:        0 bytes
  1897 ;; Hardware stack levels used: 1
  1898 ;; This function calls:
  1899 ;;		Nothing
  1900 ;; This function is called by:
  1901 ;;		_sendByte
  1902 ;; This function uses a non-reentrant model
  1903 ;;
  1904                           
  1905  070C                     _onePulse:	
  1906                           ;psect for function _onePulse
  1907                           
  1908  070C                     l766:	
  1909                           ;incstack = 0
  1910                           ; Regs used in _onePulse: []
  1911                           
  1912                           
  1913                           ;led_strip.c: 28:     LATAbits.LATA0 = 1;
  1914  070C  0022               	movlb	2	; select bank2
  1915  070D  140C               	bsf	12,0	;volatile
  1916                           
  1917                           ;led_strip.c: 29:     LATAbits.LATA0 = 1;
  1918  070E  140C               	bsf	12,0	;volatile
  1919                           
  1920                           ;led_strip.c: 30:     LATAbits.LATA0 = 1;
  1921  070F  140C               	bsf	12,0	;volatile
  1922                           
  1923                           ;led_strip.c: 31:     LATAbits.LATA0 = 0;
  1924  0710  100C               	bcf	12,0	;volatile
  1925  0711                     l135:
  1926  0711  0008               	return
  1927  0712                     __end_of_onePulse:
  1928                           
  1929                           	psect	text5
  1930  0724                     __ptext5:	
  1931 ;; *************** function _byteFrom *****************
  1932 ;; Defined at:
  1933 ;;		line 5 in file "led_strip.c"
  1934 ;; Parameters:    Size  Location     Type
  1935 ;;  n               1    wreg     unsigned char 
  1936 ;; Auto vars:     Size  Location     Type
  1937 ;;  n               1    1[COMMON] unsigned char 
  1938 ;;  byte            1    2[COMMON] struct .
  1939 ;; Return value:  Size  Location     Type
  1940 ;;                  1    wreg      struct .
  1941 ;; Registers used:
  1942 ;;		wreg
  1943 ;; Tracked objects:
  1944 ;;		On entry : 0/0
  1945 ;;		On exit  : 0/0
  1946 ;;		Unchanged: 0/0
  1947 ;; Data sizes:     COMMON   BANK0   BANK1   BANK2   BANK3   BANK4   BANK5   BANK6
  1948 ;;      Params:         0       0       0       0       0       0       0       0
  1949 ;;      Locals:         2       0       0       0       0       0       0       0
  1950 ;;      Temps:          1       0       0       0       0       0       0       0
  1951 ;;      Totals:         3       0       0       0       0       0       0       0
  1952 ;;Total ram usage:        3 bytes
  1953 ;; Hardware stack levels used: 1
  1954 ;; This function calls:
  1955 ;;		Nothing
  1956 ;; This function is called by:
  1957 ;;		_main
  1958 ;; This function uses a non-reentrant model
  1959 ;;
  1960                           
  1961  0724                     _byteFrom:	
  1962                           ;psect for function _byteFrom
  1963                           
  1964                           
  1965                           ;incstack = 0
  1966                           ; Regs used in _byteFrom: [wreg]
  1967                           ;byteFrom@n stored from wreg
  1968  0724  00F1               	movwf	byteFrom@n
  1969  0725                     l850:
  1970                           
  1971                           ;led_strip.c: 6:     Byte_t byte = {.byte = n};
  1972  0725  087C               	movf	byteFrom@F6899,w
  1973  0726  00F0               	movwf	??_byteFrom
  1974  0727  0870               	movf	??_byteFrom,w
  1975  0728  00F2               	movwf	byteFrom@byte
  1976  0729  0871               	movf	byteFrom@n,w
  1977  072A  00F0               	movwf	??_byteFrom
  1978  072B  0870               	movf	??_byteFrom,w
  1979  072C  00F2               	movwf	byteFrom@byte
  1980                           
  1981                           ;led_strip.c: 7:     return byte;
  1982  072D  0872               	movf	byteFrom@byte,w
  1983  072E                     l94:
  1984  072E  0008               	return
  1985  072F                     __end_of_byteFrom:
  1986                           
  1987                           	psect	text6
  1988  071A                     __ptext6:	
  1989 ;; *************** function _SYSTEM_Initialize *****************
  1990 ;; Defined at:
  1991 ;;		line 50 in file "mcc_generated_files/mcc.c"
  1992 ;; Parameters:    Size  Location     Type
  1993 ;;		None
  1994 ;; Auto vars:     Size  Location     Type
  1995 ;;		None
  1996 ;; Return value:  Size  Location     Type
  1997 ;;                  1    wreg      void 
  1998 ;; Registers used:
  1999 ;;		wreg, status,2, status,0, pclath, cstack
  2000 ;; Tracked objects:
  2001 ;;		On entry : 0/0
  2002 ;;		On exit  : 0/0
  2003 ;;		Unchanged: 0/0
  2004 ;; Data sizes:     COMMON   BANK0   BANK1   BANK2   BANK3   BANK4   BANK5   BANK6
  2005 ;;      Params:         0       0       0       0       0       0       0       0
  2006 ;;      Locals:         0       0       0       0       0       0       0       0
  2007 ;;      Temps:          0       0       0       0       0       0       0       0
  2008 ;;      Totals:         0       0       0       0       0       0       0       0
  2009 ;;Total ram usage:        0 bytes
  2010 ;; Hardware stack levels used: 1
  2011 ;; Hardware stack levels required when called: 1
  2012 ;; This function calls:
  2013 ;;		_OSCILLATOR_Initialize
  2014 ;;		_PIN_MANAGER_Initialize
  2015 ;;		_WDT_Initialize
  2016 ;; This function is called by:
  2017 ;;		_main
  2018 ;; This function uses a non-reentrant model
  2019 ;;
  2020                           
  2021  071A                     _SYSTEM_Initialize:	
  2022                           ;psect for function _SYSTEM_Initialize
  2023                           
  2024  071A                     l848:	
  2025                           ;incstack = 0
  2026                           ; Regs used in _SYSTEM_Initialize: [wreg+status,2+status,0+pclath+cstack]
  2027                           
  2028                           
  2029                           ;mcc_generated_files/mcc.c: 53:     PIN_MANAGER_Initialize();
  2030  071A  3187  273C  3187   	fcall	_PIN_MANAGER_Initialize
  2031                           
  2032                           ;mcc_generated_files/mcc.c: 54:     OSCILLATOR_Initialize();
  2033  071D  3187  2712  3187   	fcall	_OSCILLATOR_Initialize
  2034                           
  2035                           ;mcc_generated_files/mcc.c: 55:     WDT_Initialize();
  2036  0720  3187  2704  3187   	fcall	_WDT_Initialize
  2037  0723                     l75:
  2038  0723  0008               	return
  2039  0724                     __end_of_SYSTEM_Initialize:
  2040                           
  2041                           	psect	text7
  2042  0704                     __ptext7:	
  2043 ;; *************** function _WDT_Initialize *****************
  2044 ;; Defined at:
  2045 ;;		line 70 in file "mcc_generated_files/mcc.c"
  2046 ;; Parameters:    Size  Location     Type
  2047 ;;		None
  2048 ;; Auto vars:     Size  Location     Type
  2049 ;;		None
  2050 ;; Return value:  Size  Location     Type
  2051 ;;                  1    wreg      void 
  2052 ;; Registers used:
  2053 ;;		wreg
  2054 ;; Tracked objects:
  2055 ;;		On entry : 0/0
  2056 ;;		On exit  : 0/0
  2057 ;;		Unchanged: 0/0
  2058 ;; Data sizes:     COMMON   BANK0   BANK1   BANK2   BANK3   BANK4   BANK5   BANK6
  2059 ;;      Params:         0       0       0       0       0       0       0       0
  2060 ;;      Locals:         0       0       0       0       0       0       0       0
  2061 ;;      Temps:          0       0       0       0       0       0       0       0
  2062 ;;      Totals:         0       0       0       0       0       0       0       0
  2063 ;;Total ram usage:        0 bytes
  2064 ;; Hardware stack levels used: 1
  2065 ;; This function calls:
  2066 ;;		Nothing
  2067 ;; This function is called by:
  2068 ;;		_SYSTEM_Initialize
  2069 ;; This function uses a non-reentrant model
  2070 ;;
  2071                           
  2072  0704                     _WDT_Initialize:	
  2073                           ;psect for function _WDT_Initialize
  2074                           
  2075  0704                     l798:	
  2076                           ;incstack = 0
  2077                           ; Regs used in _WDT_Initialize: [wreg]
  2078                           
  2079                           
  2080                           ;mcc_generated_files/mcc.c: 73:     WDTCON = 0x16;
  2081  0704  3016               	movlw	22
  2082  0705  0021               	movlb	1	; select bank1
  2083  0706  0097               	movwf	23	;volatile
  2084  0707                     l81:
  2085  0707  0008               	return
  2086  0708                     __end_of_WDT_Initialize:
  2087                           
  2088                           	psect	text8
  2089  073C                     __ptext8:	
  2090 ;; *************** function _PIN_MANAGER_Initialize *****************
  2091 ;; Defined at:
  2092 ;;		line 55 in file "mcc_generated_files/pin_manager.c"
  2093 ;; Parameters:    Size  Location     Type
  2094 ;;		None
  2095 ;; Auto vars:     Size  Location     Type
  2096 ;;		None
  2097 ;; Return value:  Size  Location     Type
  2098 ;;                  1    wreg      void 
  2099 ;; Registers used:
  2100 ;;		wreg, status,2
  2101 ;; Tracked objects:
  2102 ;;		On entry : 0/0
  2103 ;;		On exit  : 0/0
  2104 ;;		Unchanged: 0/0
  2105 ;; Data sizes:     COMMON   BANK0   BANK1   BANK2   BANK3   BANK4   BANK5   BANK6
  2106 ;;      Params:         0       0       0       0       0       0       0       0
  2107 ;;      Locals:         0       0       0       0       0       0       0       0
  2108 ;;      Temps:          0       0       0       0       0       0       0       0
  2109 ;;      Totals:         0       0       0       0       0       0       0       0
  2110 ;;Total ram usage:        0 bytes
  2111 ;; Hardware stack levels used: 1
  2112 ;; This function calls:
  2113 ;;		Nothing
  2114 ;; This function is called by:
  2115 ;;		_SYSTEM_Initialize
  2116 ;; This function uses a non-reentrant model
  2117 ;;
  2118                           
  2119  073C                     _PIN_MANAGER_Initialize:	
  2120                           ;psect for function _PIN_MANAGER_Initialize
  2121                           
  2122  073C                     l770:	
  2123                           ;incstack = 0
  2124                           ; Regs used in _PIN_MANAGER_Initialize: [wreg+status,2]
  2125                           
  2126                           
  2127                           ;mcc_generated_files/pin_manager.c: 60:     LATA = 0x00;
  2128  073C  0022               	movlb	2	; select bank2
  2129  073D  018C               	clrf	12	;volatile
  2130                           
  2131                           ;mcc_generated_files/pin_manager.c: 61:     LATC = 0x00;
  2132  073E  018E               	clrf	14	;volatile
  2133  073F                     l772:
  2134                           
  2135                           ;mcc_generated_files/pin_manager.c: 66:     TRISA = 0x36;
  2136  073F  3036               	movlw	54
  2137  0740  0021               	movlb	1	; select bank1
  2138  0741  008C               	movwf	12	;volatile
  2139  0742                     l774:
  2140                           
  2141                           ;mcc_generated_files/pin_manager.c: 67:     TRISC = 0x3F;
  2142  0742  303F               	movlw	63
  2143  0743  008E               	movwf	14	;volatile
  2144  0744                     l776:
  2145                           
  2146                           ;mcc_generated_files/pin_manager.c: 72:     ANSELC = 0x0F;
  2147  0744  300F               	movlw	15
  2148  0745  0023               	movlb	3	; select bank3
  2149  0746  008E               	movwf	14	;volatile
  2150  0747                     l778:
  2151                           
  2152                           ;mcc_generated_files/pin_manager.c: 73:     ANSELA = 0x16;
  2153  0747  3016               	movlw	22
  2154  0748  008C               	movwf	12	;volatile
  2155                           
  2156                           ;mcc_generated_files/pin_manager.c: 78:     WPUA = 0x00;
  2157  0749  0024               	movlb	4	; select bank4
  2158  074A  018C               	clrf	12	;volatile
  2159                           
  2160                           ;mcc_generated_files/pin_manager.c: 79:     WPUC = 0x00;
  2161  074B  018E               	clrf	14	;volatile
  2162  074C                     l780:
  2163                           
  2164                           ;mcc_generated_files/pin_manager.c: 80:     OPTION_REGbits.nWPUEN = 1;
  2165  074C  0021               	movlb	1	; select bank1
  2166  074D  1795               	bsf	21,7	;volatile
  2167                           
  2168                           ;mcc_generated_files/pin_manager.c: 85:     ODCONA = 0x00;
  2169  074E  0025               	movlb	5	; select bank5
  2170  074F  018C               	clrf	12	;volatile
  2171                           
  2172                           ;mcc_generated_files/pin_manager.c: 86:     ODCONC = 0x00;
  2173  0750  018E               	clrf	14	;volatile
  2174  0751                     l782:
  2175                           
  2176                           ;mcc_generated_files/pin_manager.c: 91:     SLRCONA = 0x37;
  2177  0751  3037               	movlw	55
  2178  0752  0026               	movlb	6	; select bank6
  2179  0753  008C               	movwf	12	;volatile
  2180  0754                     l784:
  2181                           
  2182                           ;mcc_generated_files/pin_manager.c: 92:     SLRCONC = 0x3F;
  2183  0754  303F               	movlw	63
  2184  0755  008E               	movwf	14	;volatile
  2185  0756                     l786:
  2186                           
  2187                           ;mcc_generated_files/pin_manager.c: 97:     INLVLA = 0x3F;
  2188  0756  303F               	movlw	63
  2189  0757  0027               	movlb	7	; select bank7
  2190  0758  008C               	movwf	12	;volatile
  2191  0759                     l788:
  2192                           
  2193                           ;mcc_generated_files/pin_manager.c: 98:     INLVLC = 0x3F;
  2194  0759  303F               	movlw	63
  2195  075A  008E               	movwf	14	;volatile
  2196  075B                     l53:
  2197  075B  0008               	return
  2198  075C                     __end_of_PIN_MANAGER_Initialize:
  2199                           
  2200                           	psect	text9
  2201  0712                     __ptext9:	
  2202 ;; *************** function _OSCILLATOR_Initialize *****************
  2203 ;; Defined at:
  2204 ;;		line 58 in file "mcc_generated_files/mcc.c"
  2205 ;; Parameters:    Size  Location     Type
  2206 ;;		None
  2207 ;; Auto vars:     Size  Location     Type
  2208 ;;		None
  2209 ;; Return value:  Size  Location     Type
  2210 ;;                  1    wreg      void 
  2211 ;; Registers used:
  2212 ;;		wreg, status,2
  2213 ;; Tracked objects:
  2214 ;;		On entry : 0/0
  2215 ;;		On exit  : 0/0
  2216 ;;		Unchanged: 0/0
  2217 ;; Data sizes:     COMMON   BANK0   BANK1   BANK2   BANK3   BANK4   BANK5   BANK6
  2218 ;;      Params:         0       0       0       0       0       0       0       0
  2219 ;;      Locals:         0       0       0       0       0       0       0       0
  2220 ;;      Temps:          0       0       0       0       0       0       0       0
  2221 ;;      Totals:         0       0       0       0       0       0       0       0
  2222 ;;Total ram usage:        0 bytes
  2223 ;; Hardware stack levels used: 1
  2224 ;; This function calls:
  2225 ;;		Nothing
  2226 ;; This function is called by:
  2227 ;;		_SYSTEM_Initialize
  2228 ;; This function uses a non-reentrant model
  2229 ;;
  2230                           
  2231  0712                     _OSCILLATOR_Initialize:	
  2232                           ;psect for function _OSCILLATOR_Initialize
  2233                           
  2234  0712                     l790:	
  2235                           ;incstack = 0
  2236                           ; Regs used in _OSCILLATOR_Initialize: [wreg+status,2]
  2237                           
  2238                           
  2239                           ;mcc_generated_files/mcc.c: 61:     OSCCON = 0x7A;
  2240  0712  307A               	movlw	122
  2241  0713  0021               	movlb	1	; select bank1
  2242  0714  0099               	movwf	25	;volatile
  2243  0715                     l792:
  2244                           
  2245                           ;mcc_generated_files/mcc.c: 63:     OSCSTAT = 0x00;
  2246  0715  019A               	clrf	26	;volatile
  2247  0716                     l794:
  2248                           
  2249                           ;mcc_generated_files/mcc.c: 65:     OSCTUNE = 0x00;
  2250  0716  0198               	clrf	24	;volatile
  2251  0717                     l796:
  2252                           
  2253                           ;mcc_generated_files/mcc.c: 67:     BORCON = 0x00;
  2254  0717  0024               	movlb	4	; select bank4
  2255  0718  019D               	clrf	29	;volatile
  2256  0719                     l78:
  2257  0719  0008               	return
  2258  071A                     __end_of_OSCILLATOR_Initialize:
  2259  007E                     btemp	set	126	;btemp
  2260  007E                     wtemp0	set	126
  2261                           
  2262                           	psect	idloc
  2263                           
  2264                           ;Config register IDLOC0 @ 0x8000
  2265                           ;	unspecified, using default values
  2266  8000                     	org	32768
  2267  8000  3FFF               	dw	16383
  2268                           
  2269                           ;Config register IDLOC1 @ 0x8001
  2270                           ;	unspecified, using default values
  2271  8001                     	org	32769
  2272  8001  3FFF               	dw	16383
  2273                           
  2274                           ;Config register IDLOC2 @ 0x8002
  2275                           ;	unspecified, using default values
  2276  8002                     	org	32770
  2277  8002  3FFF               	dw	16383
  2278                           
  2279                           ;Config register IDLOC3 @ 0x8003
  2280                           ;	unspecified, using default values
  2281  8003                     	org	32771
  2282  8003  3FFF               	dw	16383
  2283                           
  2284                           	psect	config
  2285                           
  2286                           ;Config register CONFIG1 @ 0x8007
  2287                           ;	Oscillator Selection Bits
  2288                           ;	FOSC = INTOSC, INTOSC oscillator: I/O function on CLKIN pin
  2289                           ;	Watchdog Timer Enable
  2290                           ;	WDTE = OFF, WDT disabled
  2291                           ;	Power-up Timer Enable
  2292                           ;	PWRTE = OFF, PWRT disabled
  2293                           ;	MCLR Pin Function Select
  2294                           ;	MCLRE = ON, MCLR/VPP pin function is MCLR
  2295                           ;	Flash Program Memory Code Protection
  2296                           ;	CP = OFF, Program memory code protection is disabled
  2297                           ;	Brown-out Reset Enable
  2298                           ;	BOREN = ON, Brown-out Reset enabled
  2299                           ;	Clock Out Enable
  2300                           ;	CLKOUTEN = OFF, CLKOUT function is disabled. I/O or oscillator function on the CLKOUT 
      +                          pin
  2301                           ;	Internal/External Switchover Mode
  2302                           ;	IESO = ON, Internal/External Switchover Mode is enabled
  2303                           ;	Fail-Safe Clock Monitor Enable
  2304                           ;	FCMEN = ON, Fail-Safe Clock Monitor is enabled
  2305  8007                     	org	32775
  2306  8007  3FE4               	dw	16356
  2307                           
  2308                           ;Config register CONFIG2 @ 0x8008
  2309                           ;	Flash Memory Self-Write Protection
  2310                           ;	WRT = OFF, Write protection off
  2311                           ;	Peripheral Pin Select one-way control
  2312                           ;	PPS1WAY = ON, The PPSLOCK bit cannot be cleared once it is set by software
  2313                           ;	Zero-cross detect disable
  2314                           ;	ZCD = OFF, Zero-cross detect circuit is disabled at POR
  2315                           ;	Phase Lock Loop enable
  2316                           ;	PLLEN = OFF, 4x PLL is enabled when software sets the SPLLEN bit
  2317                           ;	Stack Overflow/Underflow Reset Enable
  2318                           ;	STVREN = ON, Stack Overflow or Underflow will cause a Reset
  2319                           ;	Brown-out Reset Voltage Selection
  2320                           ;	BORV = LO, Brown-out Reset Voltage (Vbor), low trip point selected.
  2321                           ;	Low-Power Brown Out Reset
  2322                           ;	LPBOR = OFF, Low-Power BOR is disabled
  2323                           ;	Low-Voltage Programming Enable
  2324                           ;	LVP = ON, Low-voltage programming enabled
  2325  8008                     	org	32776
  2326  8008  3EFF               	dw	16127

Data Sizes:
    Strings     0
    Constant    0
    Data        0
    BSS         7
    Persistent  32
    Stack       0

Auto Spaces:
    Space          Size  Autos    Used
    COMMON           14     12      13
    BANK0            80      0       6
    BANK1            80      0       0
    BANK2            80      0       0
    BANK3            80      0       0
    BANK4            80      0       0
    BANK5            80      0       0
    BANK6            16      0       0

Pointer List with Targets:

    None.

Critical Paths under _main in COMMON

    _main->_writeColor
    _writeColor->_sendByte

Critical Paths under _main in BANK0

    None.

Critical Paths under _main in BANK1

    None.

Critical Paths under _main in BANK2

    None.

Critical Paths under _main in BANK3

    None.

Critical Paths under _main in BANK4

    None.

Critical Paths under _main in BANK5

    None.

Critical Paths under _main in BANK6

    None.

Call Graph Tables:

 ---------------------------------------------------------------------------------
 (Depth) Function   	        Calls       Base Space   Used Autos Params    Refs
 ---------------------------------------------------------------------------------
 (0) _main                                                 8     8      0     539
                                              4 COMMON     8     8      0
                  _SYSTEM_Initialize
                           _byteFrom
                         _writeColor
 ---------------------------------------------------------------------------------
 (1) _writeColor                                           3     0      3     422
                                              1 COMMON     3     0      3
                           _sendByte
 ---------------------------------------------------------------------------------
 (2) _sendByte                                             1     1      0     176
                                              0 COMMON     1     1      0
                           _onePulse
                          _zeroPulse
 ---------------------------------------------------------------------------------
 (3) _zeroPulse                                            0     0      0       0
 ---------------------------------------------------------------------------------
 (3) _onePulse                                             0     0      0       0
 ---------------------------------------------------------------------------------
 (1) _byteFrom                                             3     3      0      46
                                              0 COMMON     3     3      0
 ---------------------------------------------------------------------------------
 (1) _SYSTEM_Initialize                                    0     0      0       0
              _OSCILLATOR_Initialize
             _PIN_MANAGER_Initialize
                     _WDT_Initialize
 ---------------------------------------------------------------------------------
 (2) _WDT_Initialize                                       0     0      0       0
 ---------------------------------------------------------------------------------
 (2) _PIN_MANAGER_Initialize                               0     0      0       0
 ---------------------------------------------------------------------------------
 (2) _OSCILLATOR_Initialize                                0     0      0       0
 ---------------------------------------------------------------------------------
 Estimated maximum stack depth 3
 ---------------------------------------------------------------------------------

 Call Graph Graphs:

 _main (ROOT)
   _SYSTEM_Initialize
     _OSCILLATOR_Initialize
     _PIN_MANAGER_Initialize
     _WDT_Initialize
   _byteFrom
   _writeColor
     _sendByte
       _onePulse
       _zeroPulse

 Address spaces:
Name               Size   Autos  Total    Cost      Usage
BIGRAM             1F0      0       0       0        0.0%
NULL                 0      0       0       0        0.0%
CODE                 0      0       0       0        0.0%
BITCOMMON            E      0       0       1        0.0%
BITSFR0              0      0       0       1        0.0%
SFR0                 0      0       0       1        0.0%
COMMON               E      C       D       2       92.9%
BITSFR1              0      0       0       2        0.0%
SFR1                 0      0       0       2        0.0%
BITSFR2              0      0       0       3        0.0%
SFR2                 0      0       0       3        0.0%
STACK                0      0       0       3        0.0%
BITSFR3              0      0       0       4        0.0%
SFR3                 0      0       0       4        0.0%
ABS                  0      0      13       4        0.0%
BITBANK0            50      0       0       5        0.0%
BITSFR4              0      0       0       5        0.0%
SFR4                 0      0       0       5        0.0%
BANK0               50      0       6       6        7.5%
BITSFR5              0      0       0       6        0.0%
SFR5                 0      0       0       6        0.0%
BITBANK1            50      0       0       7        0.0%
BITSFR6              0      0       0       7        0.0%
SFR6                 0      0       0       7        0.0%
BANK1               50      0       0       8        0.0%
BITSFR7              0      0       0       8        0.0%
SFR7                 0      0       0       8        0.0%
BITBANK2            50      0       0       9        0.0%
BITSFR8              0      0       0       9        0.0%
SFR8                 0      0       0       9        0.0%
BANK2               50      0       0      10        0.0%
BITSFR9              0      0       0      10        0.0%
SFR9                 0      0       0      10        0.0%
BITBANK3            50      0       0      11        0.0%
BITSFR10             0      0       0      11        0.0%
SFR10                0      0       0      11        0.0%
BANK3               50      0       0      12        0.0%
BITSFR11             0      0       0      12        0.0%
SFR11                0      0       0      12        0.0%
BITBANK4            50      0       0      13        0.0%
BITSFR12             0      0       0      13        0.0%
SFR12                0      0       0      13        0.0%
BANK4               50      0       0      14        0.0%
BITSFR13             0      0       0      14        0.0%
SFR13                0      0       0      14        0.0%
BITBANK5            50      0       0      15        0.0%
BITSFR14             0      0       0      15        0.0%
SFR14                0      0       0      15        0.0%
BANK5               50      0       0      16        0.0%
BITSFR15             0      0       0      16        0.0%
SFR15                0      0       0      16        0.0%
BITBANK6            10      0       0      17        0.0%
BITSFR16             0      0       0      17        0.0%
SFR16                0      0       0      17        0.0%
BANK6               10      0       0      18        0.0%
BITSFR17             0      0       0      18        0.0%
SFR17                0      0       0      18        0.0%
BITSFR18             0      0       0      19        0.0%
SFR18                0      0       0      19        0.0%
DATA                 0      0      13      19        0.0%
BITSFR19             0      0       0      20        0.0%
SFR19                0      0       0      20        0.0%
BITSFR20             0      0       0      21        0.0%
SFR20                0      0       0      21        0.0%
BITSFR21             0      0       0      22        0.0%
SFR21                0      0       0      22        0.0%
BITSFR22             0      0       0      23        0.0%
SFR22                0      0       0      23        0.0%
BITSFR23             0      0       0      24        0.0%
SFR23                0      0       0      24        0.0%
BITSFR24             0      0       0      25        0.0%
SFR24                0      0       0      25        0.0%
BITSFR25             0      0       0      26        0.0%
SFR25                0      0       0      26        0.0%
BITSFR26             0      0       0      27        0.0%
SFR26                0      0       0      27        0.0%
BITSFR27             0      0       0      28        0.0%
SFR27                0      0       0      28        0.0%
BITSFR28             0      0       0      29        0.0%
SFR28                0      0       0      29        0.0%
BITSFR29             0      0       0      30        0.0%
SFR29                0      0       0      30        0.0%
BITSFR30             0      0       0      31        0.0%
SFR30                0      0       0      31        0.0%
BITSFR31             0      0       0      32        0.0%
SFR31                0      0       0      32        0.0%


Microchip Technology PIC Macro Assembler V2.36 build 20220127204148 
Symbol Table                                                                                   Sun Apr 16 14:41:01 2023

                            l17 077B                              l53 075B                              l81 0707  
                            l75 0723                              l78 0719                              l94 072E  
                            l97 073B                              u90 07A0                              u91 079F  
                           l132 07F4                             l135 0711                             l138 070B  
                           l800 079C                             l810 07AF                             l802 07A0  
                           l820 07C1                             l812 07B2                             l804 07A4  
                           l830 07D3                             l822 07C5                             l814 07B6  
                           l806 07A7                             l840 07E6                             l832 07D7  
                           l824 07C8                             l816 07BA                             l808 07AB  
                           l770 073C                             l850 0725                             l842 07E9  
                           l834 07DB                             l826 07CC                             l818 07BD  
                           l780 074C                             l772 073F                             l844 07ED  
                           l836 07DE                             l828 07D0                             l860 0766  
                           l790 0712                             l782 0751                             l774 0742  
                           l766 070C                             l846 07F1                             l838 07E2  
                           l854 072F                             l862 076D                             l792 0715  
                           l784 0754                             l776 0744                             l848 071A  
                           l768 0708                             l864 0774                             l856 075C  
                           l794 0716                             l786 0756                             l778 0747  
                           l866 078D                             l858 075F                             l796 0717  
                           l788 0759                             l798 0704                             u100 07AB  
                           u101 07AA                             u110 07B6                             u111 07B5  
                           u120 07C1                             u121 07C0                             u130 07CC  
                           u131 07CB                             u140 07D7                             u141 07D6  
                           u150 07E2                             u151 07E1                             u160 07ED  
                           u161 07EC                             u177 0792                             wreg 0009  
                          _LATA 010C                            _LATC 010E                            _WPUA 020C  
                          _WPUC 020E                            _main 075C                            btemp 007E  
                          start 0002   __end_of_OSCILLATOR_Initialize 071A                           ?_main 0070  
                  main@redColor 0076                           _TRISA 008C                           _TRISC 008E  
                _WDT_Initialize 0704                           wtemp0 007E                 __initialization 07F5  
                  __end_of_main 079B                          ??_main 0074          __end_of_WDT_Initialize 0708  
                        _ANSELA 018C                          _ANSELC 018E                          _BORCON 021D  
                        _ODCONA 028C                          _ODCONC 028E                          _INLVLA 038C  
                        _INLVLC 038E                          _OSCCON 0099                          _WDTCON 0097  
              __end_of_byteFrom 072F                __end_of_onePulse 0712                __end_of_sendByte 07F5  
               ?_WDT_Initialize 0070               _SYSTEM_Initialize 071A         __end_of__initialization 07FD  
            ?_SYSTEM_Initialize 0070                  __pcstackCOMMON 0070             ??_SYSTEM_Initialize 0070  
                _OPTION_REGbits 0095       __end_of_SYSTEM_Initialize 0724                    byteFrom@byte 0072  
                    __pbssBANK0 0020                      __pmaintext 075C                  main@greenColor 0079  
                       _OSCSTAT 009A                         _OSCTUNE 0098                         _SLRCONA 030C  
                       _SLRCONC 030E                       ?_byteFrom 0070                       ?_onePulse 0070  
                     ?_sendByte 0070                         __ptext1 072F                         __ptext2 079B  
                       __ptext3 0708                         __ptext4 070C                         __ptext5 0724  
                       __ptext6 071A                         __ptext7 0704                         __ptext8 073C  
                       __ptext9 0712           _OSCILLATOR_Initialize 0712        ??_PIN_MANAGER_Initialize 0070  
          end_of_initialization 07FD                      ??_byteFrom 0070                      ??_onePulse 0070  
                    ??_sendByte 0070                ??_WDT_Initialize 0070               __end_of_zeroPulse 070C  
                    _writeColor 072F          ?_OSCILLATOR_Initialize 0070             start_initialization 07F5  
                 byteFrom@F6899 007C                     __pbssCOMMON 007C                       ___latbits 0001  
        _PIN_MANAGER_Initialize 073C                    sendByte@byte 0070                     ?_writeColor 0071  
                      _LATAbits 010C                       main@F6900 0020                       main@F6898 0023  
                     _zeroPulse 0708                       byteFrom@n 0071                 writeColor@color 0071  
       ??_OSCILLATOR_Initialize 0070                      ?_zeroPulse 0070                        _byteFrom 0724  
                      _onePulse 070C                        _sendByte 079B         ?_PIN_MANAGER_Initialize 0070  
                  ??_writeColor 0074                     ??_zeroPulse 0070  __end_of_PIN_MANAGER_Initialize 075C  
            __end_of_writeColor 073C  
